; Function Attrs: mustprogress uwtable
define void @_ZNK32pxrInternal_v0_24__pxrReserved__16HdPrimvarsSchema15GetPrimvarNamesEv(ptr dead_on_unwind noalias writable sret(%"class.std::vector") align 8 %0, ptr noundef nonnull readonly align 8 captures(none) dereferenceable(16) %1) local_unnamed_addr #1 align 2 {
  %3 = load ptr, ptr %1, align 8
  %.not = icmp eq ptr %3, null
  br i1 %.not, label %8, label %4

4:                                                ; preds = %2
  %5 = load ptr, ptr %3, align 8
  %6 = getelementptr inbounds nuw i8, ptr %5, i64 16
  %7 = load ptr, ptr %6, align 8
  tail call void %7(ptr dead_on_unwind writable sret(%"class.std::vector") align 8 %0, ptr noundef nonnull align 8 dereferenceable(8) %3)
  br label %9

8:                                                ; preds = %2
  tail call void @llvm.memset.p0.i64(ptr noundef nonnull align 8 dereferenceable(24) %0, i8 0, i64 24, i1 false)
  br label %9

9:                                                ; preds = %8, %4
  ret void
}